; Function Attrs: nounwind uwtable
define ptr @l_Std_Sat_AIG_toCNF_Cache_addFalse___rarg(ptr noundef %0, ptr noundef %1, ptr noundef readnone captures(none) %2, ptr noundef readnone captures(none) %3) local_unnamed_addr #0 {
  %5 = ptrtoint ptr %1 to i64
  %6 = lshr i64 %5, 1
  %.val.i.i.i = load i32, ptr %0, align 4, !tbaa !4
  %7 = icmp eq i32 %.val.i.i.i, 1
  br i1 %7, label %lean_ensure_exclusive_array.exit.i.i, label %8

8:                                                ; preds = %4
  %9 = tail call ptr @lean_copy_expand_array(ptr noundef nonnull %0, i1 noundef zeroext false) #3
  br label %lean_ensure_exclusive_array.exit.i.i

lean_ensure_exclusive_array.exit.i.i:             ; preds = %8, %4
  %.0.i.i.i = phi ptr [ %9, %8 ], [ %0, %4 ]
  %10 = getelementptr inbounds nuw i8, ptr %.0.i.i.i, i64 24
  %11 = getelementptr inbounds nuw ptr, ptr %10, i64 %6
  %12 = load ptr, ptr %11, align 8, !tbaa !9
  %13 = ptrtoint ptr %12 to i64
  %14 = and i64 %13, 1
  %.not.i.i = icmp eq i64 %14, 0
  br i1 %.not.i.i, label %15, label %lean_array_fset.exit

15:                                               ; preds = %lean_ensure_exclusive_array.exit.i.i
  %16 = load i32, ptr %12, align 4, !tbaa !4
  %17 = icmp sgt i32 %16, 1
  br i1 %17, label %18, label %20, !prof !13

18:                                               ; preds = %15
  %19 = add nsw i32 %16, -1
  store i32 %19, ptr %12, align 4, !tbaa !4
  br label %lean_array_fset.exit

20:                                               ; preds = %15
  %.not.i.i.i = icmp eq i32 %16, 0
  br i1 %.not.i.i.i, label %lean_array_fset.exit, label %21

21:                                               ; preds = %20
  tail call void @lean_dec_ref_cold(ptr noundef nonnull %12) #3
  br label %lean_array_fset.exit

lean_array_fset.exit:                             ; preds = %lean_ensure_exclusive_array.exit.i.i, %18, %20, %21
  store ptr inttoptr (i64 3 to ptr), ptr %11, align 8, !tbaa !9
  ret ptr %.0.i.i.i
}